target datalayout = "e-m:e-p270:32:32-p271:32:32-p272:64:64-i64:64-i128:128-f80:128-n8:16:32:64-S128"
target triple = "x86_64-pc-linux-gnu"

%"class.icu_77::UObject" = type { ptr }
%"class.icu_77::UnicodeString" = type { %"class.icu_77::Replaceable", %"union.icu_77::UnicodeString::StackBufferOrFields" }
%"class.icu_77::Replaceable" = type { %"class.icu_77::UObject" }
%"union.icu_77::UnicodeString::StackBufferOrFields" = type { %struct.anon.5, [32 x i8] }
%struct.anon.5 = type { i16, i32, i32, ptr }
%struct.anon = type { i16, [27 x i16] }
%union.UElement = type { ptr }

; Function Attrs: inlinehint mustprogress nounwind uwtable
define linkonce_odr noundef ptr @_ZNK6icu_7713UnicodeString13getArrayStartEv(ptr noundef nonnull align 8 dereferenceable(64) %0) #5 comdat align 2 {
  %2 = alloca ptr, align 8
  store ptr %0, ptr %2, align 8, !tbaa !83
  %3 = load ptr, ptr %2, align 8
  %4 = getelementptr inbounds nuw %"class.icu_77::UnicodeString", ptr %3, i32 0, i32 1
  %5 = getelementptr inbounds nuw %struct.anon.5, ptr %4, i32 0, i32 0
  %6 = load i16, ptr %5, align 8, !tbaa !85
  %7 = sext i16 %6 to i32
  %8 = and i32 %7, 2
  %9 = icmp ne i32 %8, 0
  br i1 %9, label %10, label %14

10:                                               ; preds = %1
  %11 = getelementptr inbounds nuw %"class.icu_77::UnicodeString", ptr %3, i32 0, i32 1
  %12 = getelementptr inbounds nuw %struct.anon, ptr %11, i32 0, i32 1
  %13 = getelementptr inbounds [27 x i16], ptr %12, i64 0, i64 0
  br label %18

14:                                               ; preds = %1
  %15 = getelementptr inbounds nuw %"class.icu_77::UnicodeString", ptr %3, i32 0, i32 1
  %16 = getelementptr inbounds nuw %struct.anon.5, ptr %15, i32 0, i32 3
  %17 = load ptr, ptr %16, align 8, !tbaa !85
  br label %18

18:                                               ; preds = %14, %10
  %19 = phi ptr [ %13, %10 ], [ %17, %14 ]
  ret ptr %19
}

; Function Attrs: inlinehint mustprogress uwtable
define linkonce_odr void @_ZNK6icu_7713UnicodeString10pinIndicesERiS1_(ptr noundef nonnull align 8 dereferenceable(64) %0, ptr noundef nonnull align 4 dereferenceable(4) %1, ptr noundef nonnull align 4 dereferenceable(4) %2) #7 comdat align 2 {
  %4 = alloca ptr, align 8
  %5 = alloca ptr, align 8
  %6 = alloca ptr, align 8
  %7 = alloca i32, align 4
  store ptr %0, ptr %4, align 8, !tbaa !83
  store ptr %1, ptr %5, align 8, !tbaa !103
  store ptr %2, ptr %6, align 8, !tbaa !103
  %8 = load ptr, ptr %4, align 8
  call void @llvm.lifetime.start.p0(i64 4, ptr %7) #13
  %9 = call noundef i32 @_ZNK6icu_7713UnicodeString6lengthEv(ptr noundef nonnull align 8 dereferenceable(64) %8)
  store i32 %9, ptr %7, align 4, !tbaa !46
  %10 = load ptr, ptr %5, align 8, !tbaa !103
  %11 = load i32, ptr %10, align 4, !tbaa !46
  %12 = icmp slt i32 %11, 0
  br i1 %12, label %13, label %15

13:                                               ; preds = %3
  %14 = load ptr, ptr %5, align 8, !tbaa !103
  store i32 0, ptr %14, align 4, !tbaa !46
  br label %24

15:                                               ; preds = %3
  %16 = load ptr, ptr %5, align 8, !tbaa !103
  %17 = load i32, ptr %16, align 4, !tbaa !46
  %18 = load i32, ptr %7, align 4, !tbaa !46
  %19 = icmp sgt i32 %17, %18
  br i1 %19, label %20, label %23

20:                                               ; preds = %15
  %21 = load i32, ptr %7, align 4, !tbaa !46
  %22 = load ptr, ptr %5, align 8, !tbaa !103
  store i32 %21, ptr %22, align 4, !tbaa !46
  br label %23

23:                                               ; preds = %20, %15
  br label %24

24:                                               ; preds = %23, %13
  %25 = load ptr, ptr %6, align 8, !tbaa !103
  %26 = load i32, ptr %25, align 4, !tbaa !46
  %27 = icmp slt i32 %26, 0
  br i1 %27, label %28, label %30

28:                                               ; preds = %24
  %29 = load ptr, ptr %6, align 8, !tbaa !103
  store i32 0, ptr %29, align 4, !tbaa !46
  br label %45

30:                                               ; preds = %24
  %31 = load ptr, ptr %6, align 8, !tbaa !103
  %32 = load i32, ptr %31, align 4, !tbaa !46
  %33 = load i32, ptr %7, align 4, !tbaa !46
  %34 = load ptr, ptr %5, align 8, !tbaa !103
  %35 = load i32, ptr %34, align 4, !tbaa !46
  %36 = sub nsw i32 %33, %35
  %37 = icmp sgt i32 %32, %36
  br i1 %37, label %38, label %44

38:                                               ; preds = %30
  %39 = load i32, ptr %7, align 4, !tbaa !46
  %40 = load ptr, ptr %5, align 8, !tbaa !103
  %41 = load i32, ptr %40, align 4, !tbaa !46
  %42 = sub nsw i32 %39, %41
  %43 = load ptr, ptr %6, align 8, !tbaa !103
  store i32 %42, ptr %43, align 4, !tbaa !46
  br label %44

44:                                               ; preds = %38, %30
  br label %45

45:                                               ; preds = %44, %28
  call void @llvm.lifetime.end.p0(i64 4, ptr %7) #13
  ret void
}

; Function Attrs: inlinehint mustprogress nounwind uwtable
define linkonce_odr noundef signext i8 @_ZNK6icu_7713UnicodeString7isBogusEv(ptr noundef nonnull align 8 dereferenceable(64) %0) #5 comdat align 2 {
  %2 = alloca ptr, align 8
  store ptr %0, ptr %2, align 8, !tbaa !83
  %3 = load ptr, ptr %2, align 8
  %4 = getelementptr inbounds nuw %"class.icu_77::UnicodeString", ptr %3, i32 0, i32 1
  %5 = getelementptr inbounds nuw %struct.anon.5, ptr %4, i32 0, i32 0
  %6 = load i16, ptr %5, align 8, !tbaa !85
  %7 = sext i16 %6 to i32
  %8 = and i32 %7, 1
  %9 = trunc i32 %8 to i8
  ret i8 %9
}

; Function Attrs: inlinehint mustprogress nounwind uwtable
define linkonce_odr noundef i32 @_ZNK6icu_7713UnicodeString14getShortLengthEv(ptr noundef nonnull align 8 dereferenceable(64) %0) #5 comdat align 2 {
  %2 = alloca ptr, align 8
  store ptr %0, ptr %2, align 8, !tbaa !83
  %3 = load ptr, ptr %2, align 8
  %4 = getelementptr inbounds nuw %"class.icu_77::UnicodeString", ptr %3, i32 0, i32 1
  %5 = getelementptr inbounds nuw %struct.anon.5, ptr %4, i32 0, i32 0
  %6 = load i16, ptr %5, align 8, !tbaa !85
  %7 = sext i16 %6 to i32
  %8 = ashr i32 %7, 5
  ret i32 %8
}

; Function Attrs: inlinehint mustprogress nounwind uwtable
define linkonce_odr noundef signext i8 @_ZNK6icu_7713UnicodeString14hasShortLengthEv(ptr noundef nonnull align 8 dereferenceable(64) %0) #5 comdat align 2 {
  %2 = alloca ptr, align 8
  store ptr %0, ptr %2, align 8, !tbaa !83
  %3 = load ptr, ptr %2, align 8
  %4 = getelementptr inbounds nuw %"class.icu_77::UnicodeString", ptr %3, i32 0, i32 1
  %5 = getelementptr inbounds nuw %struct.anon.5, ptr %4, i32 0, i32 0
  %6 = load i16, ptr %5, align 8, !tbaa !85
  %7 = sext i16 %6 to i32
  %8 = icmp sge i32 %7, 0
  %9 = zext i1 %8 to i8
  ret i8 %9
}

; Function Attrs: inlinehint mustprogress uwtable
define linkonce_odr noundef signext i8 @_ZNK6icu_7713UnicodeString9doCompareEiiRKS0_ii(ptr noundef nonnull align 8 dereferenceable(64) %0, i32 noundef %1, i32 noundef %2, ptr noundef nonnull align 8 dereferenceable(64) %3, i32 noundef %4, i32 noundef %5) #7 comdat align 2 {
  %7 = alloca i8, align 1
  %8 = alloca ptr, align 8
  %9 = alloca i32, align 4
  %10 = alloca i32, align 4
  %11 = alloca ptr, align 8
  %12 = alloca i32, align 4
  %13 = alloca i32, align 4
  store ptr %0, ptr %8, align 8, !tbaa !83
  store i32 %1, ptr %9, align 4, !tbaa !46
  store i32 %2, ptr %10, align 4, !tbaa !46
  store ptr %3, ptr %11, align 8, !tbaa !83
  store i32 %4, ptr %12, align 4, !tbaa !46
  store i32 %5, ptr %13, align 4, !tbaa !46
  %14 = load ptr, ptr %8, align 8
  %15 = load ptr, ptr %11, align 8, !tbaa !83
  %16 = call noundef signext i8 @_ZNK6icu_7713UnicodeString7isBogusEv(ptr noundef nonnull align 8 dereferenceable(64) %15)
  %17 = icmp ne i8 %16, 0
  br i1 %17, label %18, label %23

18:                                               ; preds = %6
  %19 = call noundef signext i8 @_ZNK6icu_7713UnicodeString7isBogusEv(ptr noundef nonnull align 8 dereferenceable(64) %14)
  %20 = icmp ne i8 %19, 0
  %21 = xor i1 %20, true
  %22 = zext i1 %21 to i8
  store i8 %22, ptr %7, align 1
  br label %32

23:                                               ; preds = %6
  %24 = load ptr, ptr %11, align 8, !tbaa !83
  call void @_ZNK6icu_7713UnicodeString10pinIndicesERiS1_(ptr noundef nonnull align 8 dereferenceable(64) %24, ptr noundef nonnull align 4 dereferenceable(4) %12, ptr noundef nonnull align 4 dereferenceable(4) %13)
  %25 = load i32, ptr %9, align 4, !tbaa !46
  %26 = load i32, ptr %10, align 4, !tbaa !46
  %27 = load ptr, ptr %11, align 8, !tbaa !83
  %28 = call noundef ptr @_ZNK6icu_7713UnicodeString13getArrayStartEv(ptr noundef nonnull align 8 dereferenceable(64) %27)
  %29 = load i32, ptr %12, align 4, !tbaa !46
  %30 = load i32, ptr %13, align 4, !tbaa !46
  %31 = call noundef signext i8 @_ZNK6icu_7713UnicodeString9doCompareEiiPKDsii(ptr noundef nonnull align 8 dereferenceable(64) %14, i32 noundef %25, i32 noundef %26, ptr noundef %28, i32 noundef %29, i32 noundef %30)
  store i8 %31, ptr %7, align 1
  br label %32

32:                                               ; preds = %23, %18
  %33 = load i8, ptr %7, align 1
  ret i8 %33
}

; Function Attrs: inlinehint mustprogress uwtable
define linkonce_odr noundef i32 @_ZNK6icu_7713UnicodeString6lengthEv(ptr noundef nonnull align 8 dereferenceable(64) %0) #7 comdat align 2 {
  %2 = alloca ptr, align 8
  store ptr %0, ptr %2, align 8, !tbaa !83
  %3 = load ptr, ptr %2, align 8
  %4 = call noundef signext i8 @_ZNK6icu_7713UnicodeString14hasShortLengthEv(ptr noundef nonnull align 8 dereferenceable(64) %3)
  %5 = icmp ne i8 %4, 0
  br i1 %5, label %6, label %8

6:                                                ; preds = %1
  %7 = call noundef i32 @_ZNK6icu_7713UnicodeString14getShortLengthEv(ptr noundef nonnull align 8 dereferenceable(64) %3)
  br label %12

8:                                                ; preds = %1
  %9 = getelementptr inbounds nuw %"class.icu_77::UnicodeString", ptr %3, i32 0, i32 1
  %10 = getelementptr inbounds nuw %struct.anon.5, ptr %9, i32 0, i32 1
  %11 = load i32, ptr %10, align 4, !tbaa !85
  br label %12

12:                                               ; preds = %8, %6
  %13 = phi i32 [ %7, %6 ], [ %11, %8 ]
  ret i32 %13
}

; Function Attrs: inlinehint mustprogress uwtable
define linkonce_odr noundef signext i8 @_ZNK6icu_7713UnicodeString7compareERKS0_(ptr noundef nonnull align 8 dereferenceable(64) %0, ptr noundef nonnull align 8 dereferenceable(64) %1) #7 comdat align 2 {
  %3 = alloca ptr, align 8
  %4 = alloca ptr, align 8
  store ptr %0, ptr %3, align 8, !tbaa !83
  store ptr %1, ptr %4, align 8, !tbaa !83
  %5 = load ptr, ptr %3, align 8
  %6 = call noundef i32 @_ZNK6icu_7713UnicodeString6lengthEv(ptr noundef nonnull align 8 dereferenceable(64) %5)
  %7 = load ptr, ptr %4, align 8, !tbaa !83
  %8 = load ptr, ptr %4, align 8, !tbaa !83
  %9 = call noundef i32 @_ZNK6icu_7713UnicodeString6lengthEv(ptr noundef nonnull align 8 dereferenceable(64) %8)
  %10 = call noundef signext i8 @_ZNK6icu_7713UnicodeString9doCompareEiiRKS0_ii(ptr noundef nonnull align 8 dereferenceable(64) %5, i32 noundef 0, i32 noundef %6, ptr noundef nonnull align 8 dereferenceable(64) %7, i32 noundef 0, i32 noundef %9)
  ret i8 %10
}

; Function Attrs: mustprogress uwtable
define internal noundef i32 @_ZN6icu_77L20compareUnicodeStringE8UElementS0_(ptr %0, ptr %1) #2 {
  %3 = alloca %union.UElement, align 8
  %4 = alloca %union.UElement, align 8
  %5 = alloca ptr, align 8
  %6 = alloca ptr, align 8
  %7 = getelementptr inbounds nuw %union.UElement, ptr %3, i32 0, i32 0
  store ptr %0, ptr %7, align 8
  %8 = getelementptr inbounds nuw %union.UElement, ptr %4, i32 0, i32 0
  store ptr %1, ptr %8, align 8
  call void @llvm.lifetime.start.p0(i64 8, ptr %5) #13
  %9 = load ptr, ptr %3, align 8, !tbaa !85
  store ptr %9, ptr %5, align 8, !tbaa !83
  call void @llvm.lifetime.start.p0(i64 8, ptr %6) #13
  %10 = load ptr, ptr %4, align 8, !tbaa !85
  store ptr %10, ptr %6, align 8, !tbaa !83
  %11 = load ptr, ptr %5, align 8, !tbaa !83
  %12 = load ptr, ptr %6, align 8, !tbaa !83
  %13 = call noundef signext i8 @_ZNK6icu_7713UnicodeString7compareERKS0_(ptr noundef nonnull align 8 dereferenceable(64) %11, ptr noundef nonnull align 8 dereferenceable(64) %12)
  %14 = sext i8 %13 to i32
  call void @llvm.lifetime.end.p0(i64 8, ptr %6) #13
  call void @llvm.lifetime.end.p0(i64 8, ptr %5) #13
  ret i32 %14
}