; Function Attrs: mustprogress uwtable
define internal noundef range(i32 -128, 128) i32 @_ZN6icu_77L20compareUnicodeStringE8UElementS0_(ptr %0, ptr %1) #2 {
  %3 = getelementptr inbounds nuw i8, ptr %0, i64 8
  %4 = load i16, ptr %3, align 8, !tbaa !46
  %5 = getelementptr inbounds nuw i8, ptr %1, i64 8
  %6 = load i16, ptr %5, align 8, !tbaa !46
  %7 = and i16 %6, 1
  %.not.i.i = icmp eq i16 %7, 0
  br i1 %.not.i.i, label %.sink.split.i.i.i, label %8

8:                                                ; preds = %2
  %9 = trunc i16 %4 to i8
  %10 = and i8 %9, 1
  %11 = xor i8 %10, 1
  br label %_ZNK6icu_7713UnicodeString7compareERKS0_.exit

.sink.split.i.i.i:                                ; preds = %2
  %12 = icmp slt i16 %6, 0
  %13 = getelementptr inbounds nuw i8, ptr %1, i64 12
  %14 = load i32, ptr %13, align 4
  %15 = ashr i16 %6, 5
  %16 = sext i16 %15 to i32
  %17 = select i1 %12, i32 %14, i32 %16
  %18 = icmp slt i16 %4, 0
  %19 = getelementptr inbounds nuw i8, ptr %0, i64 12
  %20 = load i32, ptr %19, align 4
  %21 = ashr i16 %4, 5
  %22 = sext i16 %21 to i32
  %23 = select i1 %18, i32 %20, i32 %22
  %spec.select.i.i = tail call i32 @llvm.smin.i32(i32 %17, i32 0)
  %.010.i.i = tail call i32 @llvm.smax.i32(i32 %17, i32 0)
  %24 = and i16 %6, 2
  %.not.i.i.i = icmp eq i16 %24, 0
  %25 = getelementptr inbounds nuw i8, ptr %1, i64 10
  %26 = getelementptr inbounds nuw i8, ptr %1, i64 24
  %27 = load ptr, ptr %26, align 8
  %28 = select i1 %.not.i.i.i, ptr %27, ptr %25
  %29 = tail call noundef signext i8 @_ZNK6icu_7713UnicodeString9doCompareEiiPKDsii(ptr noundef nonnull align 8 dereferenceable(64) %0, i32 noundef 0, i32 noundef %23, ptr noundef %28, i32 noundef %spec.select.i.i, i32 noundef %.010.i.i)
  br label %_ZNK6icu_7713UnicodeString7compareERKS0_.exit

_ZNK6icu_7713UnicodeString7compareERKS0_.exit:    ; preds = %8, %.sink.split.i.i.i
  %.0.i.i = phi i8 [ %11, %8 ], [ %29, %.sink.split.i.i.i ]
  %30 = sext i8 %.0.i.i to i32
  ret i32 %30
}